(dp0
(I-1000000000
I-3
I5
tp1
(dp2
S'chromExtremity'
p3
ccopy_reg
_reconstructor
p4
(cutils.myIntervals
Efficiency
p5
c__builtin__
tuple
p6
(I1011
NI1017
I1631
F0.382664647993944
F0.4985207100591716
F0.43297644539614566
tp7
tp8
Rp9
sS'familyContent'
p10
g4
(g5
g6
(I6350
NI169
I1628
F0.7959388317874154
F0.974075778493634
F0.876043319307443
tp11
tp12
Rp13
sS'adjacency'
p14
g4
(g5
g6
(I4624
NI881
I1800
F0.7198007471980075
F0.8399636693914623
F0.7752535837035794
tp15
tp16
Rp17
sS'nbFamilies'
p18
(I6519
I7978
tp19
sS'nbSbs'
p20
(I1014
I1554
tp21
ss(I-2
I-3
I10
tp22
(dp23
g3
g4
(g5
g6
(I413
NI89
I2229
F0.1563209689629069
F0.8227091633466136
F0.2627226463104326
tp24
tp25
Rp26
sg10
g4
(g5
g6
(I3884
NI112
I4094
F0.4868388067184758
F0.9719719719719719
F0.6487389343577751
tp27
tp28
Rp29
sg14
g4
(g5
g6
(I2973
NI772
I3451
F0.4627957658779577
F0.7938584779706275
F0.5847182613826335
tp30
tp31
Rp32
sg18
(I3996
I7978
tp33
sg20
(I251
I1554
tp34
ss(I-2
I-3
I50
tp35
(dp36
g3
g4
(g5
g6
(I71
NI13
I2571
F0.026873580620741862
F0.8452380952380952
F0.052090975788701394
tp37
tp38
Rp39
sg10
g4
(g5
g6
(I1877
NI60
I6101
F0.23527199799448484
F0.9690242643262778
F0.37861825516893594
tp40
tp41
Rp42
sg14
g4
(g5
g6
(I1478
NI417
I4946
F0.2300747198007472
F0.7799472295514512
F0.3553311696117322
tp43
tp44
Rp45
sg18
(I1937
I7978
tp46
sg20
(I42
I1554
tp47
ss(I-1000000000
I-100000000
I5
tp48
(dp49
g3
g4
(g5
g6
(I1044
NI1074
I1598
F0.3951551854655564
F0.49291784702549574
F0.4386554621848739
tp50
tp51
Rp52
sg10
g4
(g5
g6
(I6298
NI163
I1680
F0.7894209074956129
F0.9747717071660733
F0.8723595816884825
tp53
tp54
Rp55
sg14
g4
(g5
g6
(I4609
NI793
I1815
F0.7174657534246576
F0.8532025175860792
F0.7794689666835785
tp56
tp57
Rp58
sg18
(I6461
I7978
tp59
sg20
(I1059
I1554
tp60
ss(I-2
I-100000000
I1
tp61
(dp62
g3
g4
(g5
g6
(I1841
NI2163
I801
F0.6968205904617714
F0.4597902097902098
F0.5540174541077338
tp63
tp64
Rp65
sg10
g4
(g5
g6
(I7585
NI261
I393
F0.9507395337177238
F0.9667346418557227
F0.958670374115268
tp66
tp67
Rp68
sg14
g4
(g5
g6
(I3539
NI858
I2885
F0.5509028642590287
F0.8048669547418694
F0.6540985121522964
tp69
tp70
Rp71
sg18
(I7846
I7978
tp72
sg20
(I3449
I1554
tp73
ss(I-1000000000
I-3
I1
tp74
(dp75
g3
g4
(g5
g6
(I1861
NI1944
I781
F0.7043906131718395
F0.48909329829172143
F0.5773227857918412
tp76
tp77
Rp78
sg10
g4
(g5
g6
(I7951
NI345
I27
F0.9966156931561795
F0.958413693346191
F0.9771414526238171
tp79
tp80
Rp81
sg14
g4
(g5
g6
(I4920
NI936
I1504
F0.7658779576587795
F0.8401639344262295
F0.8013029315960911
tp82
tp83
Rp84
sg18
(I8296
I7978
tp85
sg20
(I2440
I1554
tp86
ss(I-2
I-100000000
I50
tp87
(dp88
g3
g4
(g5
g6
(I68
NI14
I2574
F0.025738077214231644
F0.8292682926829268
F0.0499265785609398
tp89
tp90
Rp91
sg10
g4
(g5
g6
(I1771
NI54
I6207
F0.22198546001504135
F0.9704109589041096
F0.3613179638886055
tp92
tp93
Rp94
sg14
g4
(g5
g6
(I1406
NI378
I5018
F0.21886674968866748
F0.7881165919282511
F0.34259259259259256
tp95
tp96
Rp97
sg18
(I1825
I7978
tp98
sg20
(I41
I1554
tp99
ss(I-1000000000
I-3
I2
tp100
(dp101
g3
g4
(g5
g6
(I1424
NI1332
I1218
F0.5389856169568509
F0.5166908563134979
F0.5276028158577252
tp102
tp103
Rp104
sg10
g4
(g5
g6
(I7054
NI193
I924
F0.8841814991225871
F0.9733682903270319
F0.9266338259441708
tp105
tp106
Rp107
sg14
g4
(g5
g6
(I4920
NI936
I1504
F0.7658779576587795
F0.8401639344262295
F0.8013029315960911
tp108
tp109
Rp110
sg18
(I7247
I7978
tp111
sg20
(I1391
I1554
tp112
ss(I-1000000000
I-100000000
I3
tp113
(dp114
g3
g4
(g5
g6
(I1456
NI1396
I1186
F0.5510976532929599
F0.5105189340813464
F0.5300327630141972
tp115
tp116
Rp117
sg10
g4
(g5
g6
(I7009
NI186
I969
F0.8785409877162196
F0.9741487143849896
F0.9238779410795492
tp118
tp119
Rp120
sg14
g4
(g5
g6
(I4915
NI854
I1509
F0.7650996264009963
F0.8519674120298145
F0.8062002788485196
tp121
tp122
Rp123
sg18
(I7195
I7978
tp124
sg20
(I1426
I1554
tp125
ss(I-2
I-100000000
I3
tp126
(dp127
g3
g4
(g5
g6
(I900
NI210
I1742
F0.34065102195306585
F0.8108108108108109
F0.47974413646055436
tp128
tp129
Rp130
sg10
g4
(g5
g6
(I4820
NI132
I3158
F0.60416144397092
F0.9733441033925686
F0.7455529775715389
tp131
tp132
Rp133
sg14
g4
(g5
g6
(I3539
NI858
I2885
F0.5509028642590287
F0.8048669547418694
F0.6540985121522964
tp134
tp135
Rp136
sg18
(I4952
I7978
tp137
sg20
(I555
I1554
tp138
ss(I-1000000000
I-3
I3
tp139
(dp140
g3
g4
(g5
g6
(I1408
NI1322
I1234
F0.5329295987887964
F0.5157509157509158
F0.5241995532390171
tp141
tp142
Rp143
sg10
g4
(g5
g6
(I7030
NI191
I948
F0.8811732263725245
F0.9735493698933666
F0.9250608592670571
tp144
tp145
Rp146
sg14
g4
(g5
g6
(I4920
NI936
I1504
F0.7658779576587795
F0.8401639344262295
F0.8013029315960911
tp147
tp148
Rp149
sg18
(I7221
I7978
tp150
sg20
(I1365
I1554
tp151
ss(I-1000000000
I-100000000
I2
tp152
(dp153
g3
g4
(g5
g6
(I1456
NI1396
I1186
F0.5510976532929599
F0.5105189340813464
F0.5300327630141972
tp154
tp155
Rp156
sg10
g4
(g5
g6
(I7009
NI186
I969
F0.8785409877162196
F0.9741487143849896
F0.9238779410795492
tp157
tp158
Rp159
sg14
g4
(g5
g6
(I4915
NI854
I1509
F0.7650996264009963
F0.8519674120298145
F0.8062002788485196
tp160
tp161
Rp162
sg18
(I7195
I7978
tp163
sg20
(I1426
I1554
tp164
ss(I-2
I-100000000
I2
tp165
(dp166
g3
g4
(g5
g6
(I1014
NI256
I1628
F0.3838001514004542
F0.7984251968503937
F0.51840490797546
tp167
tp168
Rp169
sg10
g4
(g5
g6
(I4973
NI139
I3005
F0.6233391827525696
F0.9728090766823161
F0.759816653934301
tp170
tp171
Rp172
sg14
g4
(g5
g6
(I3539
NI858
I2885
F0.5509028642590287
F0.8048669547418694
F0.6540985121522964
tp173
tp174
Rp175
sg18
(I5112
I7978
tp176
sg20
(I715
I1554
tp177
ss(I-1000000000
I-100000000
I1
tp178
(dp179
g3
g4
(g5
g6
(I1918
NI2072
I724
F0.7259651778955337
F0.4807017543859649
F0.5784077201447527
tp180
tp181
Rp182
sg10
g4
(g5
g6
(I7978
NI355
I0
F1.0
F0.9573982959318372
F0.9782355465636686
tp183
tp184
Rp185
sg14
g4
(g5
g6
(I4915
NI854
I1509
F0.7650996264009963
F0.8519674120298145
F0.8062002788485196
tp186
tp187
Rp188
sg18
(I8333
I7978
tp189
sg20
(I2564
I1554
tp190
ss(I-2
I-100000000
I5
tp191
(dp192
g3
g4
(g5
g6
(I703
NI157
I1939
F0.2660862982588948
F0.8174418604651162
F0.4014848657909766
tp193
tp194
Rp195
sg10
g4
(g5
g6
(I4576
NI126
I3402
F0.5735773376786162
F0.9732028923862186
F0.7217665615141955
tp196
tp197
Rp198
sg14
g4
(g5
g6
(I3430
NI842
I2994
F0.5339352428393525
F0.8029026217228464
F0.6413612565445027
tp199
tp200
Rp201
sg18
(I4702
I7978
tp202
sg20
(I430
I1554
tp203
ss(I-2
I-3
I5
tp204
(dp205
g3
g4
(g5
g6
(I679
NI143
I1963
F0.257002271006813
F0.8260340632603407
F0.3920323325635104
tp206
tp207
Rp208
sg10
g4
(g5
g6
(I4532
NI126
I3446
F0.568062170970168
F0.9729497638471447
F0.7173156062044952
tp209
tp210
Rp211
sg14
g4
(g5
g6
(I3382
NI865
I3042
F0.5264632627646326
F0.7963268189310101
F0.6338674913316465
tp212
tp213
Rp214
sg18
(I4658
I7978
tp215
sg20
(I411
I1554
tp216
ss(I-1000000000
I-100000000
I50
tp217
(dp218
g3
g4
(g5
g6
(I7
NI5
I2635
F0.0026495079485238456
F0.5833333333333334
F0.005275056518462698
tp219
tp220
Rp221
sg10
g4
(g5
g6
(I168
NI4
I7810
F0.021057909250438708
F0.9767441860465116
F0.041226993865030676
tp222
tp223
Rp224
sg14
g4
(g5
g6
(I144
NI22
I6280
F0.0224159402241594
F0.8674698795180723
F0.04370257966616085
tp225
tp226
Rp227
sg18
(I172
I7978
tp228
sg20
(I6
I1554
tp229
ss(I-2
I-3
I2
tp230
(dp231
g3
g4
(g5
g6
(I981
NI234
I1661
F0.37130961392884176
F0.8074074074074075
F0.5086855068706249
tp232
tp233
Rp234
sg10
g4
(g5
g6
(I4912
NI139
I3066
F0.6156931561794936
F0.9724806968917046
F0.7540102847494052
tp235
tp236
Rp237
sg14
g4
(g5
g6
(I3479
NI880
I2945
F0.5415628891656289
F0.7981188345950906
F0.6452749698599647
tp238
tp239
Rp240
sg18
(I5051
I7978
tp241
sg20
(I692
I1554
tp242
ss(I-2
I-3
I3
tp243
(dp244
g3
g4
(g5
g6
(I863
NI183
I1779
F0.3266464799394398
F0.8250478011472275
F0.4680043383947939
tp245
tp246
Rp247
sg10
g4
(g5
g6
(I4750
NI132
I3228
F0.5953873151165706
F0.9729619008603032
F0.7387247278382583
tp248
tp249
Rp250
sg14
g4
(g5
g6
(I3479
NI880
I2945
F0.5415628891656289
F0.7981188345950906
F0.6452749698599647
tp251
tp252
Rp253
sg18
(I4882
I7978
tp254
sg20
(I523
I1554
tp255
ss(I-2
I-3
I1
tp256
(dp257
g3
g4
(g5
g6
(I1825
NI2226
I817
F0.6907645722937169
F0.45050604788941
F0.5453458837591514
tp258
tp259
Rp260
sg10
g4
(g5
g6
(I7624
NI263
I354
F0.9556279769365755
F0.9666539875744896
F0.9611093602269146
tp261
tp262
Rp263
sg14
g4
(g5
g6
(I3479
NI880
I2945
F0.5415628891656289
F0.7981188345950906
F0.6452749698599647
tp264
tp265
Rp266
sg18
(I7887
I7978
tp267
sg20
(I3528
I1554
tp268
ss(I-1000000000
I-3
I50
tp269
(dp270
g3
g4
(g5
g6
(I7
NI5
I2635
F0.0026495079485238456
F0.5833333333333334
F0.005275056518462698
tp271
tp272
Rp273
sg10
g4
(g5
g6
(I172
NI4
I7806
F0.021559288042115817
F0.9772727272727273
F0.042187883247485895
tp274
tp275
Rp276
sg14
g4
(g5
g6
(I148
NI22
I6276
F0.02303860523038605
F0.8705882352941177
F0.044889293296936604
tp277
tp278
Rp279
sg18
(I176
I7978
tp280
sg20
(I6
I1554
tp281
ss(I-1000000000
I-3
I10
tp282
(dp283
g3
g4
(g5
g6
(I464
NI446
I2178
F0.17562452687358063
F0.5098901098901099
F0.26126126126126126
tp284
tp285
Rp286
sg10
g4
(g5
g6
(I4271
NI120
I3707
F0.5353472048132364
F0.9726713732634935
F0.690597461395424
tp287
tp288
Rp289
sg14
g4
(g5
g6
(I3280
NI656
I3144
F0.5105853051058531
F0.8333333333333334
F0.6332046332046334
tp290
tp291
Rp292
sg18
(I4391
I7978
tp293
sg20
(I455
I1554
tp294
ss(I-1000000000
I-100000000
I10
tp295
(dp296
g3
g4
(g5
g6
(I471
NI457
I2171
F0.17827403482210447
F0.5075431034482759
F0.2638655462184874
tp297
tp298
Rp299
sg10
g4
(g5
g6
(I4090
NI111
I3888
F0.5126598144898471
F0.9735777195905737
F0.6716479185483208
tp300
tp301
Rp302
sg14
g4
(g5
g6
(I3171
NI566
I3253
F0.4936176836861768
F0.8485416109178485
F0.6241511662237968
tp303
tp304
Rp305
sg18
(I4201
I7978
tp306
sg20
(I464
I1554
tp307
ss(I-2
I-100000000
I10
tp308
(dp309
g3
g4
(g5
g6
(I426
NI98
I2216
F0.16124148372445118
F0.8129770992366412
F0.26910928616550855
tp310
tp311
Rp312
sg10
g4
(g5
g6
(I3905
NI112
I4073
F0.48947104537478064
F0.9721184963903411
F0.6511046269278866
tp313
tp314
Rp315
sg14
g4
(g5
g6
(I3004
NI751
I3420
F0.4676214196762142
F0.8
F0.5902347971313489
tp316
tp317
Rp318
sg18
(I4017
I7978
tp319
sg20
(I262
I1554
tp320
ss.