((dp0
(I00
(I00
Ntp1
Ntp2
(dp3
I0
(dp4
S'adjacency'
p5
ccopy_reg
_reconstructor
p6
(cutils.myIntervals
Efficiency
p7
c__builtin__
tuple
p8
(I5587
NI503
I837
F0.8697073474470735
F0.9174055829228243
F0.8929199296787598
tp9
tp10
Rp11
sS'coverage'
p12
F0.761793625384045
sS'chromExtremity'
p13
g6
(g7
g8
(I1713
NI1167
I929
F0.6483724451173354
F0.5947916666666667
F0.6204273813835567
tp14
tp15
Rp16
sS'familyContent'
p17
g6
(g7
g8
(I7368
NI156
I610
F0.9235397342692404
F0.9792663476874003
F0.9505870210295446
tp18
tp19
Rp20
sS'nbFamilies'
p21
(I7524
I7978
tp22
sS'nbSbs'
p23
(I1446
I1554
tp24
ssI1
(dp25
g5
g6
(g7
g8
(I6250
NI747
I174
F0.9729140722291407
F0.8932399599828498
F0.9313762014752999
tp26
tp27
Rp28
sg12
F0.8845493749997966
sg13
g6
(g7
g8
(I1517
NI152
I1125
F0.5741862225586677
F0.9089275014979029
F0.7037810252841568
tp29
tp30
Rp31
sg17
g6
(g7
g8
(I7655
NI168
I323
F0.9595136625720732
F0.9785248625846862
F0.9689260173406746
tp32
tp33
Rp34
sg21
(I7823
I7978
tp35
sg23
(I843
I1554
tp36
ssI2
(dp37
g5
g6
(g7
g8
(I6305
NI811
I119
F0.9814757160647571
F0.8860314783586284
F0.931314623338257
tp38
tp39
Rp40
sg12
F0.9094920850841082
sg13
g6
(g7
g8
(I1432
NI52
I1210
F0.5420136260408781
F0.9649595687331537
F0.6941347552108579
tp41
tp42
Rp43
sg17
g6
(g7
g8
(I7680
NI169
I298
F0.9626472800200552
F0.9784685947254428
F0.9704934605421116
tp44
tp45
Rp46
sg21
(I7849
I7978
tp47
sg23
(I750
I1554
tp48
ssI3
(dp49
g5
g6
(g7
g8
(I6311
NI837
I113
F0.9824097135740971
F0.8829043088975937
F0.9300029472443265
tp50
tp51
Rp52
sg12
F0.9163437132492638
sg13
g6
(g7
g8
(I1391
NI38
I1251
F0.5264950794852384
F0.9734079776067179
F0.6833701793171211
tp53
tp54
Rp55
sg17
g6
(g7
g8
(I7684
NI169
I294
F0.9631486588117323
F0.9784795619508468
F0.9707535847388038
tp56
tp57
Rp58
sg21
(I7853
I7978
tp59
sg23
(I723
I1554
tp60
ssI4
(dp61
g5
g6
(g7
g8
(I6311
NI853
I113
F0.9824097135740971
F0.8809324399776661
F0.9289078598763615
tp62
tp63
Rp64
sg12
F0.9192383719223505
sg13
g6
(g7
g8
(I1371
NI38
I1271
F0.5189250567751703
F0.9730305180979418
F0.6768699086645272
tp65
tp66
Rp67
sg17
g6
(g7
g8
(I7690
NI169
I288
F0.9639007269992479
F0.9784959918564703
F0.9711435246574478
tp68
tp69
Rp70
sg21
(I7859
I7978
tp71
sg23
(I713
I1554
tp72
ssI5
(dp73
g5
g6
(g7
g8
(I6311
NI870
I113
F0.9824097135740971
F0.8788469572482941
F0.9277471517824329
tp74
tp75
Rp76
sg12
F0.921356340542318
sg13
g6
(g7
g8
(I1354
NI41
I1288
F0.5124905374716124
F0.9706093189964158
F0.6707951449095864
tp77
tp78
Rp79
sg17
g6
(g7
g8
(I7696
NI172
I282
F0.9646527951867636
F0.9781392984239959
F0.9713492364003535
tp80
tp81
Rp82
sg21
(I7868
I7978
tp83
sg23
(I707
I1554
tp84
ssI6
(dp85
g5
g6
(g7
g8
(I6311
NI887
I113
F0.9824097135740971
F0.8767713253681578
F0.9265893407722802
tp86
tp87
Rp88
sg12
F0.9242128842294568
sg13
g6
(g7
g8
(I1333
NI42
I1309
F0.5045420136260409
F0.9694545454545455
F0.6636793627084889
tp89
tp90
Rp91
sg17
g6
(g7
g8
(I7701
NI172
I277
F0.96527951867636
F0.9781531817604471
F0.9716737114377642
tp92
tp93
Rp94
sg21
(I7873
I7978
tp95
sg23
(I697
I1554
tp96
ssI7
(dp97
g5
g6
(g7
g8
(I6311
NI906
I113
F0.9824097135740971
F0.8744630732991547
F0.9252987317645334
tp98
tp99
Rp100
sg12
F0.9279361666808918
sg13
g6
(g7
g8
(I1309
NI39
I1333
F0.4954579863739591
F0.9710682492581603
F0.656140350877193
tp101
tp102
Rp103
sg17
g6
(g7
g8
(I7706
NI172
I272
F0.9659062421659563
F0.9781670474739782
F0.9719979818365287
tp104
tp105
Rp106
sg21
(I7878
I7978
tp107
sg23
(I683
I1554
tp108
ssI8
(dp109
g5
g6
(g7
g8
(I6311
NI918
I113
F0.9824097135740971
F0.8730114815327155
F0.9244854610708269
tp110
tp111
Rp112
sg12
F0.929811626645891
sg13
g6
(g7
g8
(I1291
NI39
I1351
F0.4886449659348978
F0.9706766917293234
F0.6500503524672709
tp113
tp114
Rp115
sg17
g6
(g7
g8
(I7708
NI172
I270
F0.9661569315617949
F0.9781725888324873
F0.9721276327405727
tp116
tp117
Rp118
sg21
(I7880
I7978
tp119
sg23
(I674
I1554
tp120
ssI9
(dp121
g5
g6
(g7
g8
(I6311
NI927
I113
F0.9824097135740971
F0.8719259463940315
F0.923876445615576
tp122
tp123
Rp124
sg12
F0.9313136446217809
sg13
g6
(g7
g8
(I1279
NI39
I1363
F0.4841029523088569
F0.9704097116843703
F0.645959595959596
tp125
tp126
Rp127
sg17
g6
(g7
g8
(I7710
NI173
I268
F0.9664076209576334
F0.9780540403399721
F0.9721959523359183
tp128
tp129
Rp130
sg21
(I7883
I7978
tp131
sg23
(I668
I1554
tp132
ssI10
(dp133
g5
g6
(g7
g8
(I6311
NI937
I113
F0.9824097135740971
F0.8707229580573952
F0.9232007021650089
tp134
tp135
Rp136
sg12
F0.9328471540114186
sg13
g6
(g7
g8
(I1268
NI40
I1374
F0.47993943981831944
F0.9694189602446484
F0.6420253164556962
tp137
tp138
Rp139
sg17
g6
(g7
g8
(I7714
NI173
I264
F0.9669089997493105
F0.9780651705337898
F0.9724550898203593
tp140
tp141
Rp142
sg21
(I7887
I7978
tp143
sg23
(I663
I1554
tp144
ssI15
(dp145
g5
g6
(g7
g8
(I6311
NI984
I113
F0.9824097135740971
F0.8651130911583276
F0.9200379036372912
tp146
tp147
Rp148
sg12
F0.9415769823327921
sg13
g6
(g7
g8
(I1223
NI43
I1419
F0.46290688872066615
F0.9660347551342812
F0.6258955987717502
tp149
tp150
Rp151
sg17
g6
(g7
g8
(I7731
NI176
I247
F0.9690398596139383
F0.9777412419375238
F0.9733711048158641
tp152
tp153
Rp154
sg21
(I7907
I7978
tp155
sg23
(I642
I1554
tp156
ssI50
(dp157
g5
g6
(g7
g8
(I6311
NI1115
I113
F0.9824097135740971
F0.8498518718017776
F0.9113357400722021
tp158
tp159
Rp160
sg12
F0.9646917112014715
sg13
g6
(g7
g8
(I1123
NI67
I1519
F0.42505677517032553
F0.9436974789915966
F0.5861169102296451
tp161
tp162
Rp163
sg17
g6
(g7
g8
(I7778
NI190
I200
F0.9749310604161444
F0.9761546184738956
F0.9755424557882855
tp164
tp165
Rp166
sg21
(I7968
I7978
tp167
sg23
(I605
I1554
tp168
ssI20
(dp169
g5
g6
(g7
g8
(I6311
NI1011
I113
F0.9824097135740971
F0.8619229718656105
F0.9182307580387021
tp170
tp171
Rp172
sg12
F0.9465647417842987
sg13
g6
(g7
g8
(I1198
NI48
I1444
F0.453444360333081
F0.9614767255216693
F0.6162551440329218
tp173
tp174
Rp175
sg17
g6
(g7
g8
(I7741
NI178
I237
F0.9702933065931311
F0.9775224144462684
F0.9738944454928602
tp176
tp177
Rp178
sg21
(I7919
I7978
tp179
sg23
(I632
I1554
tp180
sss(I01
(I00
Ntp181
Ntp182
(dp183
I0
(dp184
g5
g6
(g7
g8
(I5587
NI503
I837
F0.8697073474470735
F0.9174055829228243
F0.8929199296787598
tp185
tp186
Rp187
sg12
F0.761793625384045
sg13
g6
(g7
g8
(I1713
NI1167
I929
F0.6483724451173354
F0.5947916666666667
F0.6204273813835567
tp188
tp189
Rp190
sg17
g6
(g7
g8
(I7368
NI156
I610
F0.9235397342692404
F0.9792663476874003
F0.9505870210295446
tp191
tp192
Rp193
sg21
(I7524
I7978
tp194
sg23
(I1446
I1554
tp195
ssI1
(dp196
g5
g6
(g7
g8
(I6250
NI747
I174
F0.9729140722291407
F0.8932399599828498
F0.9313762014752999
tp197
tp198
Rp199
sg12
F0.8845493749997966
sg13
g6
(g7
g8
(I1517
NI152
I1125
F0.5741862225586677
F0.9089275014979029
F0.7037810252841568
tp200
tp201
Rp202
sg17
g6
(g7
g8
(I7655
NI168
I323
F0.9595136625720732
F0.9785248625846862
F0.9689260173406746
tp203
tp204
Rp205
sg21
(I7823
I7978
tp206
sg23
(I843
I1554
tp207
ssI2
(dp208
g5
g6
(g7
g8
(I6305
NI803
I119
F0.9814757160647571
F0.8870287000562747
F0.9318652083949158
tp209
tp210
Rp211
sg12
F0.9086082157944303
sg13
g6
(g7
g8
(I1447
NI52
I1195
F0.5476911430734293
F0.9653102068045364
F0.6988650084520648
tp212
tp213
Rp214
sg17
g6
(g7
g8
(I7680
NI169
I298
F0.9626472800200552
F0.9784685947254428
F0.9704934605421116
tp215
tp216
Rp217
sg21
(I7849
I7978
tp218
sg23
(I758
I1554
tp219
ssI3
(dp220
g5
g6
(g7
g8
(I6311
NI810
I113
F0.9824097135740971
F0.8862519309085802
F0.9318567737172389
tp221
tp222
Rp223
sg12
F0.9124132674917924
sg13
g6
(g7
g8
(I1440
NI39
I1202
F0.5450416351249053
F0.973630831643002
F0.6988595001213297
tp224
tp225
Rp226
sg17
g6
(g7
g8
(I7684
NI169
I294
F0.9631486588117323
F0.9784795619508468
F0.9707535847388038
tp227
tp228
Rp229
sg21
(I7853
I7978
tp230
sg23
(I750
I1554
tp231
ssI4
(dp232
g5
g6
(g7
g8
(I6311
NI807
I113
F0.9824097135740971
F0.8866254565889294
F0.9320632107517354
tp233
tp234
Rp235
sg12
F0.912904366224845
sg13
g6
(g7
g8
(I1451
NI39
I1191
F0.5492051476154428
F0.9738255033557047
F0.702323330106486
tp236
tp237
Rp238
sg17
g6
(g7
g8
(I7690
NI169
I288
F0.9639007269992479
F0.9784959918564703
F0.9711435246574478
tp239
tp240
Rp241
sg21
(I7859
I7978
tp242
sg23
(I759
I1554
tp243
ssI5
(dp244
g5
g6
(g7
g8
(I6311
NI807
I113
F0.9824097135740971
F0.8866254565889294
F0.9320632107517354
tp245
tp246
Rp247
sg12
F0.9132766944699886
sg13
g6
(g7
g8
(I1460
NI42
I1182
F0.5526116578349735
F0.9720372836218375
F0.7046332046332046
tp248
tp249
Rp250
sg17
g6
(g7
g8
(I7696
NI172
I282
F0.9646527951867636
F0.9781392984239959
F0.9713492364003535
tp251
tp252
Rp253
sg21
(I7868
I7978
tp254
sg23
(I770
I1554
tp255
ssI6
(dp256
g5
g6
(g7
g8
(I6311
NI815
I113
F0.9824097135740971
F0.8856300870053326
F0.9315129151291514
tp257
tp258
Rp259
sg12
F0.9148499747386241
sg13
g6
(g7
g8
(I1454
NI43
I1188
F0.5503406510219531
F0.9712758851035405
F0.7025851654989127
tp260
tp261
Rp262
sg17
g6
(g7
g8
(I7701
NI172
I277
F0.96527951867636
F0.9781531817604471
F0.9716737114377642
tp263
tp264
Rp265
sg21
(I7873
I7978
tp266
sg23
(I769
I1554
tp267
ssI7
(dp268
g5
g6
(g7
g8
(I6311
NI817
I113
F0.9824097135740971
F0.8853815937149271
F0.9313754427390791
tp269
tp270
Rp271
sg12
F0.9151399915887561
sg13
g6
(g7
g8
(I1454
NI44
I1188
F0.5503406510219531
F0.9706275033377837
F0.702415458937198
tp272
tp273
Rp274
sg17
g6
(g7
g8
(I7706
NI172
I272
F0.9659062421659563
F0.9781670474739782
F0.9719979818365287
tp275
tp276
Rp277
sg21
(I7878
I7978
tp278
sg23
(I772
I1554
tp279
ssI8
(dp280
g5
g6
(g7
g8
(I6311
NI816
I113
F0.9824097135740971
F0.8855058229268977
F0.9314441738617076
tp281
tp282
Rp283
sg12
F0.9155029266246838
sg13
g6
(g7
g8
(I1458
NI45
I1184
F0.5518546555639667
F0.9700598802395209
F0.7034981905910737
tp284
tp285
Rp286
sg17
g6
(g7
g8
(I7708
NI172
I270
F0.9661569315617949
F0.9781725888324873
F0.9721276327405727
tp287
tp288
Rp289
sg21
(I7880
I7978
tp290
sg23
(I776
I1554
tp291
ssI9
(dp292
g5
g6
(g7
g8
(I6310
NI814
I114
F0.9822540473225405
F0.8857383492419989
F0.9315028048420431
tp293
tp294
Rp295
sg12
F0.9151466151609563
sg13
g6
(g7
g8
(I1461
NI47
I1181
F0.5529901589704769
F0.9688328912466844
F0.7040963855421687
tp296
tp297
Rp298
sg17
g6
(g7
g8
(I7710
NI173
I268
F0.9664076209576334
F0.9780540403399721
F0.9721959523359183
tp299
tp300
Rp301
sg21
(I7883
I7978
tp302
sg23
(I782
I1554
tp303
ssI10
(dp304
g5
g6
(g7
g8
(I6310
NI815
I114
F0.9822540473225405
F0.8856140350877193
F0.9314340541737398
tp305
tp306
Rp307
sg12
F0.9158548125583456
sg13
g6
(g7
g8
(I1465
NI48
I1177
F0.5545041635124905
F0.9682749504296101
F0.7051744885679905
tp308
tp309
Rp310
sg17
g6
(g7
g8
(I7714
NI173
I264
F0.9669089997493105
F0.9780651705337898
F0.9724550898203593
tp311
tp312
Rp313
sg21
(I7887
I7978
tp314
sg23
(I786
I1554
tp315
ssI15
(dp316
g5
g6
(g7
g8
(I6307
NI807
I117
F0.9817870485678705
F0.8865617093055946
F0.9317476732161324
tp317
tp318
Rp319
sg12
F0.9145842541351581
sg13
g6
(g7
g8
(I1503
NI59
I1139
F0.56888720666162
F0.9622279129321383
F0.7150333016175071
tp320
tp321
Rp322
sg17
g6
(g7
g8
(I7731
NI176
I247
F0.9690398596139383
F0.9777412419375238
F0.9733711048158641
tp323
tp324
Rp325
sg21
(I7907
I7978
tp326
sg23
(I824
I1554
tp327
ssI50
(dp328
g5
g6
(g7
g8
(I6294
NI780
I130
F0.9797633872976339
F0.8897370653095844
F0.9325826048303453
tp329
tp330
Rp331
sg12
F0.9122569241670198
sg13
g6
(g7
g8
(I1603
NI117
I1039
F0.6067373202119606
F0.9319767441860465
F0.7349839523154517
tp332
tp333
Rp334
sg17
g6
(g7
g8
(I7778
NI190
I200
F0.9749310604161444
F0.9761546184738956
F0.9755424557882855
tp335
tp336
Rp337
sg21
(I7968
I7978
tp338
sg23
(I959
I1554
tp339
ssI20
(dp340
g5
g6
(g7
g8
(I6306
NI800
I118
F0.9816313823163139
F0.8874190824655221
F0.9321507760532151
tp341
tp342
Rp343
sg12
F0.9139743849141964
sg13
g6
(g7
g8
(I1526
NI68
I1116
F0.5775927327781983
F0.9573400250941029
F0.720491029272899
tp344
tp345
Rp346
sg17
g6
(g7
g8
(I7741
NI178
I237
F0.9702933065931311
F0.9775224144462684
F0.9738944454928602
tp347
tp348
Rp349
sg21
(I7919
I7978
tp350
sg23
(I849
I1554
tp351
sss(I00
(I01
I0
tp352
Ntp353
(dp354
I0
(dp355
g5
g6
(g7
g8
(I5587
NI503
I837
F0.8697073474470735
F0.9174055829228243
F0.8929199296787598
tp356
tp357
Rp358
sg12
F0.78304668358121
sg13
g6
(g7
g8
(I1988
NI1222
I654
F0.7524602573807722
F0.6193146417445483
F0.6794258373205742
tp359
tp360
Rp361
sg17
g6
(g7
g8
(I7647
NI207
I331
F0.9585109049887189
F0.9736440030557678
F0.9660181910055584
tp362
tp363
Rp364
sg21
(I7854
I7978
tp365
sg23
(I1779
I1554
tp366
ssI1
(dp367
g5
g6
(g7
g8
(I6227
NI596
I197
F0.9693337484433375
F0.9126483951341052
F0.9401373895976448
tp368
tp369
Rp370
sg12
F0.8771768125808906
sg13
g6
(g7
g8
(I1993
NI255
I649
F0.7543527630582891
F0.8865658362989324
F0.8151329243353783
tp371
tp372
Rp373
sg17
g6
(g7
g8
(I7875
NI221
I103
F0.9870894961143144
F0.9727025691699605
F0.9798432250839866
tp374
tp375
Rp376
sg21
(I8096
I7978
tp377
sg23
(I1294
I1554
tp378
ssI2
(dp379
g5
g6
(g7
g8
(I6282
NI660
I142
F0.977895392278954
F0.9049265341400173
F0.9399970073320366
tp380
tp381
Rp382
sg12
F0.899028207639261
sg13
g6
(g7
g8
(I1876
NI142
I766
F0.7100681302043906
F0.929633300297324
F0.8051502145922746
tp383
tp384
Rp385
sg17
g6
(g7
g8
(I7867
NI209
I111
F0.9860867385309602
F0.9741208519068846
F0.9800672729537809
tp386
tp387
Rp388
sg21
(I8076
I7978
tp389
sg23
(I1155
I1554
tp390
ssI3
(dp391
g5
g6
(g7
g8
(I6288
NI687
I136
F0.9788293897882939
F0.901505376344086
F0.9385775057840137
tp392
tp393
Rp394
sg12
F0.9054108352758956
sg13
g6
(g7
g8
(I1827
NI128
I815
F0.6915215745647237
F0.9345268542199489
F0.7948662170981075
tp395
tp396
Rp397
sg17
g6
(g7
g8
(I7864
NI209
I114
F0.9857107044372023
F0.9741112349808002
F0.9798766431998006
tp398
tp399
Rp400
sg21
(I8073
I7978
tp401
sg23
(I1119
I1554
tp402
ssI4
(dp403
g5
g6
(g7
g8
(I6288
NI705
I136
F0.9788293897882939
F0.8991848991848992
F0.937318327494969
tp404
tp405
Rp406
sg12
F0.9080883952846457
sg13
g6
(g7
g8
(I1797
NI128
I845
F0.6801665404996216
F0.9335064935064935
F0.7869498576746222
tp407
tp408
Rp409
sg17
g6
(g7
g8
(I7864
NI209
I114
F0.9857107044372023
F0.9741112349808002
F0.9798766431998006
tp410
tp411
Rp412
sg21
(I8073
I7978
tp413
sg23
(I1101
I1554
tp414
ssI5
(dp415
g5
g6
(g7
g8
(I6289
NI724
I135
F0.9789850560398505
F0.8967631541423071
F0.9360720398898564
tp416
tp417
Rp418
sg12
F0.9102538720997769
sg13
g6
(g7
g8
(I1776
NI125
I866
F0.67221801665405
F0.9342451341399264
F0.7818622055910192
tp419
tp420
Rp421
sg17
g6
(g7
g8
(I7867
NI210
I111
F0.9860867385309602
F0.9740002476166894
F0.9800062285892246
tp422
tp423
Rp424
sg21
(I8077
I7978
tp425
sg23
(I1087
I1554
tp426
ssI6
(dp427
g5
g6
(g7
g8
(I6289
NI744
I135
F0.9789850560398505
F0.8942129958765819
F0.9346808352530283
tp428
tp429
Rp430
sg12
F0.9131087598938658
sg13
g6
(g7
g8
(I1746
NI126
I896
F0.6608629825889477
F0.9326923076923077
F0.773593265396544
tp431
tp432
Rp433
sg17
g6
(g7
g8
(I7867
NI210
I111
F0.9860867385309602
F0.9740002476166894
F0.9800062285892246
tp434
tp435
Rp436
sg21
(I8077
I7978
tp437
sg23
(I1069
I1554
tp438
ssI7
(dp439
g5
g6
(g7
g8
(I6289
NI764
I135
F0.9789850560398505
F0.8916773004395293
F0.9332937597388143
tp440
tp441
Rp442
sg12
F0.9167685173687211
sg13
g6
(g7
g8
(I1719
NI122
I923
F0.6506434519303558
F0.9337316675719718
F0.766897167075619
tp443
tp444
Rp445
sg17
g6
(g7
g8
(I7869
NI209
I109
F0.9863374279267987
F0.9741272592225798
F0.9801943198804185
tp446
tp447
Rp448
sg21
(I8078
I7978
tp449
sg23
(I1050
I1554
tp450
ssI8
(dp451
g5
g6
(g7
g8
(I6289
NI777
I135
F0.9789850560398505
F0.8900367959241438
F0.9323943661971831
tp452
tp453
Rp454
sg12
F0.9187025346311497
sg13
g6
(g7
g8
(I1698
NI121
I944
F0.6426949280847842
F0.9334799340296867
F0.7612642905178212
tp455
tp456
Rp457
sg17
g6
(g7
g8
(I7870
NI208
I108
F0.9864627726247179
F0.9742510522406537
F0.9803188839063278
tp458
tp459
Rp460
sg21
(I8078
I7978
tp461
sg23
(I1038
I1554
tp462
ssI9
(dp463
g5
g6
(g7
g8
(I6290
NI787
I134
F0.9791407222914073
F0.8887946870142716
F0.9317828309014147
tp464
tp465
Rp466
sg12
F0.9201553885188261
sg13
g6
(g7
g8
(I1684
NI118
I958
F0.6373959121877366
F0.9345172031076582
F0.7578757875787578
tp467
tp468
Rp469
sg17
g6
(g7
g8
(I7870
NI208
I108
F0.9864627726247179
F0.9742510522406537
F0.9803188839063278
tp470
tp471
Rp472
sg21
(I8078
I7978
tp473
sg23
(I1027
I1554
tp474
ssI10
(dp475
g5
g6
(g7
g8
(I6290
NI798
I134
F0.9791407222914073
F0.8874153498871332
F0.9310242747187685
tp476
tp477
Rp478
sg12
F0.9216778488061977
sg13
g6
(g7
g8
(I1670
NI119
I972
F0.6320968962906889
F0.9334823923979877
F0.7537801850598059
tp479
tp480
Rp481
sg17
g6
(g7
g8
(I7872
NI208
I106
F0.9867134620205565
F0.9742574257425742
F0.9804458836716902
tp482
tp483
Rp484
sg21
(I8080
I7978
tp485
sg23
(I1018
I1554
tp486
ssI15
(dp487
g5
g6
(g7
g8
(I6290
NI853
I134
F0.9791407222914073
F0.8805823883522329
F0.9272499447188028
tp488
tp489
Rp490
sg12
F0.9310794154320627
sg13
g6
(g7
g8
(I1603
NI120
I1039
F0.6067373202119606
F0.930354033662217
F0.7344788087056128
tp491
tp492
Rp493
sg17
g6
(g7
g8
(I7879
NI209
I99
F0.9875908749059915
F0.9741592482690405
F0.9808290800448152
tp494
tp495
Rp496
sg21
(I8088
I7978
tp497
sg23
(I976
I1554
tp498
ssI50
(dp499
g5
g6
(g7
g8
(I6291
NI1008
I133
F0.9792963885429639
F0.8618988902589396
F0.9168549151060263
tp500
tp501
Rp502
sg12
F0.9575561476092995
sg13
g6
(g7
g8
(I1429
NI137
I1213
F0.5408781226343679
F0.9125159642401022
F0.6791825095057034
tp503
tp504
Rp505
sg17
g6
(g7
g8
(I7895
NI219
I83
F0.9895963900727
F0.9730096130145428
F0.9812329107631121
tp506
tp507
Rp508
sg21
(I8114
I7978
tp509
sg23
(I880
I1554
tp510
ssI20
(dp511
g5
g6
(g7
g8
(I6291
NI887
I133
F0.9792963885429639
F0.8764279743661187
F0.9250110277900309
tp512
tp513
Rp514
sg12
F0.9367610113925926
sg13
g6
(g7
g8
(I1558
NI121
I1084
F0.5897047691143074
F0.927933293627159
F0.7211293682018051
tp515
tp516
Rp517
sg17
g6
(g7
g8
(I7882
NI209
I96
F0.9879669089997493
F0.9741688295637128
F0.9810193540357209
tp518
tp519
Rp520
sg21
(I8091
I7978
tp521
sg23
(I949
I1554
tp522
sss(I01
(I01
I1
tp523
I4
tp524
(dp525
I0
(dp526
g5
g6
(g7
g8
(I5581
NI497
I843
F0.8687733499377335
F0.9182296808160579
F0.8928171492561191
tp527
tp528
Rp529
sg12
F0.7856518675532489
sg13
g6
(g7
g8
(I2036
NI1232
I606
F0.7706283118849356
F0.6230110159118727
F0.6890016920473774
tp530
tp531
Rp532
sg17
g6
(g7
g8
(I7696
NI213
I282
F0.9646527951867636
F0.9730686559615628
F0.9688424498017246
tp533
tp534
Rp535
sg21
(I7909
I7978
tp536
sg23
(I1831
I1554
tp537
ssI1
(dp538
g5
g6
(g7
g8
(I6222
NI583
I202
F0.9685554171855542
F0.9143277002204262
F0.9406606697407212
tp539
tp540
Rp541
sg12
F0.8781960112889782
sg13
g6
(g7
g8
(I2037
NI264
I605
F0.771006813020439
F0.8852672750977836
F0.8241958324903904
tp542
tp543
Rp544
sg17
g6
(g7
g8
(I7910
NI226
I68
F0.9914765605414891
F0.9722222222222222
F0.9817549956559514
tp545
tp546
Rp547
sg21
(I8136
I7978
tp548
sg23
(I1331
I1554
tp549
ssI2
(dp550
g5
g6
(g7
g8
(I6268
NI597
I156
F0.9757160647571607
F0.9130371449380917
F0.943336594175634
tp551
tp552
Rp553
sg12
F0.8904657422991291
sg13
g6
(g7
g8
(I2026
NI183
I616
F0.7668433005299016
F0.9171570846536895
F0.8352916924345497
tp554
tp555
Rp556
sg17
g6
(g7
g8
(I7922
NI226
I56
F0.9929806969165205
F0.9722631320569465
F0.9825127123899294
tp557
tp558
Rp559
sg21
(I8148
I7978
tp560
sg23
(I1283
I1554
tp561
ssI3
(dp562
g5
g6
(g7
g8
(I6271
NI601
I153
F0.9761830635118306
F0.9125436554132712
F0.9432912154031287
tp563
tp564
Rp565
sg12
F0.8926422682165263
sg13
g6
(g7
g8
(I2013
NI172
I629
F0.7619227857683573
F0.9212814645308924
F0.834058421379739
tp566
tp567
Rp568
sg17
g6
(g7
g8
(I7915
NI226
I63
F0.9921032840310855
F0.9722392826434099
F0.982070848067498
tp569
tp570
Rp571
sg21
(I8141
I7978
tp572
sg23
(I1269
I1554
tp573
ssI4
(dp574
g5
g6
(g7
g8
(I6273
NI599
I151
F0.9764943960149439
F0.9128346915017462
F0.9435920577617328
tp575
tp576
Rp577
sg12
F0.8924235136591396
sg13
g6
(g7
g8
(I2017
NI170
I625
F0.7634367903103709
F0.922267946959305
F0.835369641747774
tp578
tp579
Rp580
sg17
g6
(g7
g8
(I7917
NI225
I61
F0.992353973426924
F0.9723655121591747
F0.9822580645161291
tp581
tp582
Rp583
sg21
(I8142
I7978
tp584
sg23
(I1270
I1554
tp585
ssI5
(dp586
g5
g6
(g7
g8
(I6273
NI598
I151
F0.9764943960149439
F0.912967544753311
F0.9436630312147424
tp587
tp588
Rp589
sg12
F0.8922793331805985
sg13
g6
(g7
g8
(I2020
NI164
I622
F0.7645722937168812
F0.924908424908425
F0.8371322005801907
tp590
tp591
Rp592
sg17
g6
(g7
g8
(I7917
NI223
I61
F0.992353973426924
F0.9726044226044226
F0.9823799478843529
tp593
tp594
Rp595
sg21
(I8140
I7978
tp596
sg23
(I1269
I1554
tp597
ssI6
(dp598
g5
g6
(g7
g8
(I6260
NI601
I164
F0.9744707347447074
F0.9124034397318175
F0.9424162589386526
tp599
tp600
Rp601
sg12
F0.8923141363804463
sg13
g6
(g7
g8
(I2001
NI165
I641
F0.7573807721423165
F0.9238227146814404
F0.8323627287853578
tp602
tp603
Rp604
sg17
g6
(g7
g8
(I7897
NI223
I81
F0.9898470794685384
F0.9725369458128079
F0.9811156665424277
tp605
tp606
Rp607
sg21
(I8120
I7978
tp608
sg23
(I1259
I1554
tp609
ssI7
(dp610
g5
g6
(g7
g8
(I6242
NI606
I182
F0.9716687422166874
F0.9115070093457944
F0.9406268836648584
tp611
tp612
Rp613
sg12
F0.8924660541751532
sg13
g6
(g7
g8
(I1981
NI166
I661
F0.7498107494322483
F0.9226828132277597
F0.827312591355189
tp614
tp615
Rp616
sg17
g6
(g7
g8
(I7872
NI223
I106
F0.9867134620205565
F0.9724521309450278
F0.9795308903129473
tp617
tp618
Rp619
sg21
(I8095
I7978
tp620
sg23
(I1247
I1554
tp621
ssI8
(dp622
g5
g6
(g7
g8
(I6237
NI608
I187
F0.9708904109589042
F0.9111760409057706
F0.9400859145376442
tp623
tp624
Rp625
sg12
F0.8937686461611726
sg13
g6
(g7
g8
(I1978
NI165
I664
F0.7486752460257381
F0.923005132991134
F0.82675026123302
tp626
tp627
Rp628
sg17
g6
(g7
g8
(I7869
NI221
I109
F0.9863374279267987
F0.9726823238566131
F0.979462285287528
tp629
tp630
Rp631
sg21
(I8090
I7978
tp632
sg23
(I1245
I1554
tp633
ssI9
(dp634
g5
g6
(g7
g8
(I6233
NI610
I191
F0.9702677459526775
F0.9108578109016513
F0.939624632546921
tp635
tp636
Rp637
sg12
F0.8933979738090791
sg13
g6
(g7
g8
(I1977
NI163
I665
F0.7482967448902347
F0.9238317757009346
F0.8268506900878294
tp638
tp639
Rp640
sg17
g6
(g7
g8
(I7864
NI222
I114
F0.9857107044372023
F0.9725451397477121
F0.9790836653386454
tp641
tp642
Rp643
sg21
(I8086
I7978
tp644
sg23
(I1243
I1554
tp645
ssI10
(dp646
g5
g6
(g7
g8
(I6223
NI609
I201
F0.9687110834371109
F0.9108606557377049
F0.9388955944477972
tp647
tp648
Rp649
sg12
F0.8921843167902712
sg13
g6
(g7
g8
(I1973
NI162
I669
F0.746782740348221
F0.9241217798594847
F0.826041448607913
tp650
tp651
Rp652
sg17
g6
(g7
g8
(I7851
NI221
I127
F0.9840812233642517
F0.972621407333994
F0.9783177570093459
tp653
tp654
Rp655
sg21
(I8072
I7978
tp656
sg23
(I1240
I1554
tp657
ssI15
(dp658
g5
g6
(g7
g8
(I6222
NI607
I202
F0.9685554171855542
F0.9111143652072046
F0.9389572172338339
tp659
tp660
Rp661
sg12
F0.8922666281852827
sg13
g6
(g7
g8
(I1973
NI163
I669
F0.746782740348221
F0.923689138576779
F0.8258685642528255
tp662
tp663
Rp664
sg17
g6
(g7
g8
(I7849
NI220
I129
F0.9838305339684131
F0.9727351592514561
F0.9782513865520034
tp665
tp666
Rp667
sg21
(I8069
I7978
tp668
sg23
(I1240
I1554
tp669
ssI50
(dp670
g5
g6
(g7
g8
(I6232
NI605
I192
F0.9701120797011208
F0.9115108965920725
F0.9398989518135887
tp671
tp672
Rp673
sg12
F0.8916661521735367
sg13
g6
(g7
g8
(I1997
NI171
I645
F0.7558667676003028
F0.9211254612546126
F0.8303534303534303
tp674
tp675
Rp676
sg17
g6
(g7
g8
(I7878
NI223
I100
F0.9874655302080722
F0.9724725342550302
F0.9799116860501275
tp677
tp678
Rp679
sg21
(I8101
I7978
tp680
sg23
(I1264
I1554
tp681
ssI20
(dp682
g5
g6
(g7
g8
(I6222
NI607
I202
F0.9685554171855542
F0.9111143652072046
F0.9389572172338339
tp683
tp684
Rp685
sg12
F0.8923268413757622
sg13
g6
(g7
g8
(I1974
NI163
I668
F0.7471612414837244
F0.9237248479176415
F0.8261142498430634
tp686
tp687
Rp688
sg17
g6
(g7
g8
(I7850
NI220
I128
F0.9839558786663324
F0.9727385377942999
F0.9783150548354934
tp689
tp690
Rp691
sg21
(I8070
I7978
tp692
sg23
(I1241
I1554
tp693
sss(I01
(I01
I1
tp694
Ntp695
(dp696
I0
(dp697
g5
g6
(g7
g8
(I5587
NI503
I837
F0.8697073474470735
F0.9174055829228243
F0.8929199296787598
tp698
tp699
Rp700
sg12
F0.7865246877406609
sg13
g6
(g7
g8
(I2034
NI1231
I608
F0.7698713096139288
F0.6229709035222052
F0.6886744540375824
tp701
tp702
Rp703
sg17
g6
(g7
g8
(I7696
NI213
I282
F0.9646527951867636
F0.9730686559615628
F0.9688424498017246
tp704
tp705
Rp706
sg21
(I7909
I7978
tp707
sg23
(I1834
I1554
tp708
ssI1
(dp709
g5
g6
(g7
g8
(I6226
NI596
I198
F0.9691780821917808
F0.9126355907358545
F0.9400573758115658
tp710
tp711
Rp712
sg12
F0.8795124220142791
sg13
g6
(g7
g8
(I2026
NI261
I616
F0.7668433005299016
F0.8858766943594228
F0.8220734428890241
tp713
tp714
Rp715
sg17
g6
(g7
g8
(I7908
NI226
I70
F0.9912258711456505
F0.9722153921809688
F0.9816285998013903
tp716
tp717
Rp718
sg21
(I8134
I7978
tp719
sg23
(I1333
I1554
tp720
ssI2
(dp721
g5
g6
(g7
g8
(I6272
NI610
I152
F0.9763387297633873
F0.9113629758791049
F0.9427326018337592
tp722
tp723
Rp724
sg12
F0.8917092348386346
sg13
g6
(g7
g8
(I2015
NI180
I627
F0.7626797880393641
F0.9179954441913439
F0.8331610502377508
tp725
tp726
Rp727
sg17
g6
(g7
g8
(I7920
NI226
I58
F0.9927300075206819
F0.9722563221212865
F0.9823865045894318
tp728
tp729
Rp730
sg21
(I8146
I7978
tp731
sg23
(I1285
I1554
tp732
ssI3
(dp733
g5
g6
(g7
g8
(I6278
NI615
I146
F0.9772727272727273
F0.9107790512113738
F0.9428549973717804
tp734
tp735
Rp736
sg12
F0.8940664003274705
sg13
g6
(g7
g8
(I2005
NI169
I637
F0.75889477668433
F0.922263109475621
F0.8326411960132891
tp737
tp738
Rp739
sg17
g6
(g7
g8
(I7919
NI226
I59
F0.9926046628227626
F0.9722529158993247
F0.9823233889474663
tp740
tp741
Rp742
sg21
(I8145
I7978
tp743
sg23
(I1273
I1554
tp744
ssI4
(dp745
g5
g6
(g7
g8
(I6278
NI614
I146
F0.9772727272727273
F0.9109112013929194
F0.942925803544608
tp746
tp747
Rp748
sg12
F0.894280187205707
sg13
g6
(g7
g8
(I2006
NI168
I636
F0.7592732778198334
F0.922723091076357
F0.8330564784053157
tp749
tp750
Rp751
sg17
g6
(g7
g8
(I7919
NI225
I59
F0.9926046628227626
F0.9723722986247544
F0.9823843195633296
tp752
tp753
Rp754
sg21
(I8144
I7978
tp755
sg23
(I1273
I1554
tp756
ssI5
(dp757
g5
g6
(g7
g8
(I6279
NI616
I145
F0.9774283935242839
F0.9106598984771573
F0.9428635783467227
tp758
tp759
Rp760
sg12
F0.8947000236460142
sg13
g6
(g7
g8
(I2011
NI164
I631
F0.7611657834973505
F0.9245977011494253
F0.8349595183724311
tp761
tp762
Rp763
sg17
g6
(g7
g8
(I7923
NI225
I55
F0.9931060416144397
F0.9723858615611193
F0.9826367357063128
tp764
tp765
Rp766
sg21
(I8148
I7978
tp767
sg23
(I1276
I1554
tp768
ssI6
(dp769
g5
g6
(g7
g8
(I6279
NI622
I145
F0.9774283935242839
F0.9098681350528909
F0.9424390243902439
tp770
tp771
Rp772
sg12
F0.8956711720098536
sg13
g6
(g7
g8
(I2002
NI165
I640
F0.7577592732778198
F0.9238578680203046
F0.8326055312954875
tp773
tp774
Rp775
sg17
g6
(g7
g8
(I7923
NI225
I55
F0.9931060416144397
F0.9723858615611193
F0.9826367357063128
tp776
tp777
Rp778
sg21
(I8148
I7978
tp779
sg23
(I1272
I1554
tp780
ssI7
(dp781
g5
g6
(g7
g8
(I6279
NI629
I145
F0.9774283935242839
F0.9089461493920092
F0.9419441944194419
tp782
tp783
Rp784
sg12
F0.8963650085188769
sg13
g6
(g7
g8
(I1993
NI166
I649
F0.7543527630582891
F0.9231125521074571
F0.8302436992293273
tp785
tp786
Rp787
sg17
g6
(g7
g8
(I7925
NI225
I53
F0.9933567310102782
F0.9723926380368099
F0.9827628968253969
tp788
tp789
Rp790
sg21
(I8150
I7978
tp791
sg23
(I1267
I1554
tp792
ssI8
(dp793
g5
g6
(g7
g8
(I6279
NI628
I145
F0.9774283935242839
F0.9090777472129723
F0.9420148525992048
tp794
tp795
Rp796
sg12
F0.8966312712714272
sg13
g6
(g7
g8
(I1993
NI167
I649
F0.7543527630582891
F0.9226851851851852
F0.8300708038317368
tp797
tp798
Rp799
sg17
g6
(g7
g8
(I7925
NI225
I53
F0.9933567310102782
F0.9723926380368099
F0.9827628968253969
tp800
tp801
Rp802
sg21
(I8150
I7978
tp803
sg23
(I1269
I1554
tp804
ssI9
(dp805
g5
g6
(g7
g8
(I6280
NI628
I144
F0.9775840597758406
F0.9090909090909091
F0.942094209420942
tp806
tp807
Rp808
sg12
F0.896512500783518
sg13
g6
(g7
g8
(I1993
NI165
I649
F0.7543527630582891
F0.9235403151065802
F0.8304166666666667
tp809
tp810
Rp811
sg17
g6
(g7
g8
(I7925
NI225
I53
F0.9933567310102782
F0.9723926380368099
F0.9827628968253969
tp812
tp813
Rp814
sg21
(I8150
I7978
tp815
sg23
(I1268
I1554
tp816
ssI10
(dp817
g5
g6
(g7
g8
(I6280
NI631
I144
F0.9775840597758406
F0.908696281290696
F0.9418822647169105
tp818
tp819
Rp820
sg12
F0.8974615509428256
sg13
g6
(g7
g8
(I1991
NI166
I651
F0.7535957607872824
F0.923041261010663
F0.8297561992081683
tp821
tp822
Rp823
sg17
g6
(g7
g8
(I7926
NI225
I52
F0.9934820757081976
F0.972396025027604
F0.9828259656519314
tp824
tp825
Rp826
sg21
(I8151
I7978
tp827
sg23
(I1267
I1554
tp828
ssI15
(dp829
g5
g6
(g7
g8
(I6278
NI631
I146
F0.9772727272727273
F0.908669850919091
F0.9417235430885772
tp830
tp831
Rp832
sg12
F0.8971765017718436
sg13
g6
(g7
g8
(I1998
NI173
I644
F0.7562452687358062
F0.9203132197144174
F0.8302514024516934
tp833
tp834
Rp835
sg17
g6
(g7
g8
(I7930
NI227
I48
F0.9939834544998747
F0.9721711413509869
F0.9829563061667184
tp836
tp837
Rp838
sg21
(I8157
I7978
tp839
sg23
(I1281
I1554
tp840
ssI50
(dp841
g5
g6
(g7
g8
(I6269
NI629
I155
F0.9758717310087173
F0.9088141490287039
F0.9411499774808587
tp842
tp843
Rp844
sg12
F0.8967820753221684
sg13
g6
(g7
g8
(I2022
NI219
I620
F0.765329295987888
F0.9022757697456493
F0.8281793979111203
tp845
tp846
Rp847
sg17
g6
(g7
g8
(I7945
NI236
I33
F0.9958636249686639
F0.9711526708226378
F0.983352930255585
tp848
tp849
Rp850
sg21
(I8181
I7978
tp851
sg23
(I1351
I1554
tp852
ssI20
(dp853
g5
g6
(g7
g8
(I6278
NI632
I146
F0.9772727272727273
F0.9085383502170767
F0.9416529173541323
tp854
tp855
Rp856
sg12
F0.8973571413432825
sg13
g6
(g7
g8
(I2001
NI178
I641
F0.7573807721423165
F0.9183111519045434
F0.8301182327317983
tp857
tp858
Rp859
sg17
g6
(g7
g8
(I7933
NI227
I45
F0.9943594885936324
F0.9721813725490196
F0.9831453711736274
tp860
tp861
Rp862
sg21
(I8160
I7978
tp863
sg23
(I1288
I1554
tp864
sss(I01
(I01
I0
tp865
Ntp866
(dp867
I0
(dp868
g5
g6
(g7
g8
(I5587
NI503
I837
F0.8697073474470735
F0.9174055829228243
F0.8929199296787598
tp869
tp870
Rp871
sg12
F0.78304668358121
sg13
g6
(g7
g8
(I1988
NI1222
I654
F0.7524602573807722
F0.6193146417445483
F0.6794258373205742
tp872
tp873
Rp874
sg17
g6
(g7
g8
(I7647
NI207
I331
F0.9585109049887189
F0.9736440030557678
F0.9660181910055584
tp875
tp876
Rp877
sg21
(I7854
I7978
tp878
sg23
(I1779
I1554
tp879
ssI1
(dp880
g5
g6
(g7
g8
(I6227
NI596
I197
F0.9693337484433375
F0.9126483951341052
F0.9401373895976448
tp881
tp882
Rp883
sg12
F0.8771768125808906
sg13
g6
(g7
g8
(I1993
NI255
I649
F0.7543527630582891
F0.8865658362989324
F0.8151329243353783
tp884
tp885
Rp886
sg17
g6
(g7
g8
(I7875
NI221
I103
F0.9870894961143144
F0.9727025691699605
F0.9798432250839866
tp887
tp888
Rp889
sg21
(I8096
I7978
tp890
sg23
(I1294
I1554
tp891
ssI2
(dp892
g5
g6
(g7
g8
(I6282
NI652
I142
F0.977895392278954
F0.905970579751947
F0.940559964066477
tp893
tp894
Rp895
sg12
F0.8981443383495831
sg13
g6
(g7
g8
(I1891
NI142
I751
F0.7157456472369417
F0.9301524840137727
F0.8089839572192512
tp896
tp897
Rp898
sg17
g6
(g7
g8
(I7867
NI209
I111
F0.9860867385309602
F0.9741208519068846
F0.9800672729537809
tp899
tp900
Rp901
sg21
(I8076
I7978
tp902
sg23
(I1163
I1554
tp903
ssI3
(dp904
g5
g6
(g7
g8
(I6288
NI660
I136
F0.9788293897882939
F0.9050086355785838
F0.940472629374813
tp905
tp906
Rp907
sg12
F0.9016008158993835
sg13
g6
(g7
g8
(I1876
NI129
I766
F0.7100681302043906
F0.9356608478802992
F0.807402625349688
tp908
tp909
Rp910
sg17
g6
(g7
g8
(I7865
NI209
I113
F0.9858360491351216
F0.9741144414168937
F0.9799401943683029
tp911
tp912
Rp913
sg21
(I8074
I7978
tp914
sg23
(I1147
I1554
tp915
ssI4
(dp916
g5
g6
(g7
g8
(I6288
NI659
I136
F0.9788293897882939
F0.9051389088815316
F0.940542966120709
tp917
tp918
Rp919
sg12
F0.9018985700656814
sg13
g6
(g7
g8
(I1877
NI129
I765
F0.710446631339894
F0.9356929212362911
F0.807659208261618
tp920
tp921
Rp922
sg17
g6
(g7
g8
(I7865
NI209
I113
F0.9858360491351216
F0.9741144414168937
F0.9799401943683029
tp923
tp924
Rp925
sg21
(I8074
I7978
tp926
sg23
(I1148
I1554
tp927
ssI5
(dp928
g5
g6
(g7
g8
(I6289
NI661
I135
F0.9789850560398505
F0.9048920863309352
F0.9404815313294451
tp929
tp930
Rp931
sg12
F0.9023184065059886
sg13
g6
(g7
g8
(I1881
NI126
I761
F0.7119606358819076
F0.9372197309417041
F0.809206280920628
tp932
tp933
Rp934
sg17
g6
(g7
g8
(I7868
NI210
I110
F0.9862120832288794
F0.9740034662045061
F0.9800697558545093
tp935
tp936
Rp937
sg21
(I8078
I7978
tp938
sg23
(I1151
I1554
tp939
ssI6
(dp940
g5
g6
(g7
g8
(I6289
NI670
I135
F0.9789850560398505
F0.9037217991090674
F0.9398490622431442
tp941
tp942
Rp943
sg12
F0.9037127030962353
sg13
g6
(g7
g8
(I1869
NI127
I773
F0.7074186222558667
F0.9363727454909819
F0.8059508408796894
tp944
tp945
Rp946
sg17
g6
(g7
g8
(I7869
NI210
I109
F0.9863374279267987
F0.974006683995544
F0.9801332752070748
tp947
tp948
Rp949
sg21
(I8079
I7978
tp950
sg23
(I1145
I1554
tp951
ssI7
(dp952
g5
g6
(g7
g8
(I6289
NI675
I135
F0.9789850560398505
F0.9030729465824239
F0.9394980579623543
tp953
tp954
Rp955
sg12
F0.90449050689332
sg13
g6
(g7
g8
(I1865
NI128
I777
F0.7059046177138532
F0.9357752132463623
F0.8047464940668825
tp956
tp957
Rp958
sg17
g6
(g7
g8
(I7873
NI210
I105
F0.9868388067184758
F0.9740195471978226
F0.9803872735197061
tp959
tp960
Rp961
sg21
(I8083
I7978
tp962
sg23
(I1144
I1554
tp963
ssI8
(dp964
g5
g6
(g7
g8
(I6288
NI674
I136
F0.9788293897882939
F0.9031887388681413
F0.9394890183774093
tp965
tp966
Rp967
sg12
F0.9046982123484406
sg13
g6
(g7
g8
(I1866
NI130
I776
F0.7062831188493566
F0.9348697394789579
F0.8046571798188874
tp968
tp969
Rp970
sg17
g6
(g7
g8
(I7874
NI210
I104
F0.986964151416395
F0.9740227610094013
F0.9804507533308431
tp971
tp972
Rp973
sg21
(I8084
I7978
tp974
sg23
(I1148
I1554
tp975
ssI9
(dp976
g5
g6
(g7
g8
(I6289
NI674
I135
F0.9789850560398505
F0.9032026425391354
F0.9395682378426833
tp977
tp978
Rp979
sg12
F0.904663409148593
sg13
g6
(g7
g8
(I1867
NI128
I775
F0.70666161998486
F0.9358395989974937
F0.8052620228596075
tp980
tp981
Rp982
sg17
g6
(g7
g8
(I7875
NI210
I103
F0.9870894961143144
F0.974025974025974
F0.9805142252381249
tp983
tp984
Rp985
sg21
(I8085
I7978
tp986
sg23
(I1148
I1554
tp987
ssI10
(dp988
g5
g6
(g7
g8
(I6289
NI676
I135
F0.9789850560398505
F0.902943287867911
F0.9394278885652401
tp989
tp990
Rp991
sg12
F0.9053113933555026
sg13
g6
(g7
g8
(I1867
NI129
I775
F0.70666161998486
F0.935370741482966
F0.8050884001724882
tp992
tp993
Rp994
sg17
g6
(g7
g8
(I7877
NI210
I101
F0.9873401855101529
F0.9740323976752813
F0.9806411453470277
tp995
tp996
Rp997
sg21
(I8087
I7978
tp998
sg23
(I1149
I1554
tp999
ssI15
(dp1000
g5
g6
(g7
g8
(I6286
NI675
I138
F0.9785180572851806
F0.9030311736819423
F0.9392603660814345
tp1001
tp1002
Rp1003
sg12
F0.9046888191392248
sg13
g6
(g7
g8
(I1880
NI139
I762
F0.7115821347464042
F0.9311540366518078
F0.8066938425230636
tp1004
tp1005
Rp1006
sg17
g6
(g7
g8
(I7885
NI213
I93
F0.9883429430935071
F0.9736972091874537
F0.9809654142821599
tp1007
tp1008
Rp1009
sg21
(I8098
I7978
tp1010
sg23
(I1170
I1554
tp1011
ssI50
(dp1012
g5
g6
(g7
g8
(I6276
NI667
I148
F0.976961394769614
F0.9039320178597148
F0.9390289518964614
tp1013
tp1014
Rp1015
sg12
F0.903337605214076
sg13
g6
(g7
g8
(I1919
NI187
I723
F0.7263436790310371
F0.9112060778727445
F0.8083403538331929
tp1016
tp1017
Rp1018
sg17
g6
(g7
g8
(I7905
NI223
I73
F0.9908498370518927
F0.9725639763779528
F0.9816217558673787
tp1019
tp1020
Rp1021
sg21
(I8128
I7978
tp1022
sg23
(I1253
I1554
tp1023
ssI20
(dp1024
g5
g6
(g7
g8
(I6286
NI675
I138
F0.9785180572851806
F0.9030311736819423
F0.9392603660814345
tp1025
tp1026
Rp1027
sg12
F0.9047727864272863
sg13
g6
(g7
g8
(I1885
NI144
I757
F0.7134746404239213
F0.929029078363726
F0.8071076857204025
tp1028
tp1029
Rp1030
sg17
g6
(g7
g8
(I7889
NI213
I89
F0.9888443218851842
F0.9737101950135769
F0.9812189054726369
tp1031
tp1032
Rp1033
sg21
(I8102
I7978
tp1034
sg23
(I1179
I1554
tp1035
sss(dp1036
I1
(dp1037
g13
g6
(g7
g8
(I1216
NI148
I1426
F0.46025738077214234
F0.8914956011730205
F0.6070893659510734
tp1038
tp1039
Rp1040
sg17
g6
(g7
g8
(I7573
NI208
I405
F0.9492353973426924
F0.9732682174527696
F0.9611015927406561
tp1041
tp1042
Rp1043
sg5
g6
(g7
g8
(I6063
NI1043
I361
F0.9438044831880449
F0.8532226287644245
F0.8962305986696231
tp1044
tp1045
Rp1046
sg21
(I7781
I7978
tp1047
sg23
(I689
I1554
tp1048
ssI2
(dp1049
g13
g6
(g7
g8
(I1214
NI149
I1428
F0.4595003785011355
F0.8906823184152605
F0.6062421972534332
tp1050
tp1051
Rp1052
sg17
g6
(g7
g8
(I7591
NI211
I387
F0.9514916019052394
F0.9729556523968214
F0.9621039290240812
tp1053
tp1054
Rp1055
sg5
g6
(g7
g8
(I6069
NI1059
I355
F0.9447384806973848
F0.8514309764309764
F0.8956611570247933
tp1056
tp1057
Rp1058
sg21
(I7802
I7978
tp1059
sg23
(I689
I1554
tp1060
ssI3
(dp1061
g13
g6
(g7
g8
(I1214
NI149
I1428
F0.4595003785011355
F0.8906823184152605
F0.6062421972534332
tp1062
tp1063
Rp1064
sg17
g6
(g7
g8
(I7599
NI212
I379
F0.9524943594885936
F0.9728587888874664
F0.962568877066312
tp1065
tp1066
Rp1067
sg5
g6
(g7
g8
(I6072
NI1065
I352
F0.9452054794520548
F0.8507776376628836
F0.8955091807388837
tp1068
tp1069
Rp1070
sg21
(I7811
I7978
tp1071
sg23
(I689
I1554
tp1072
ssI4
(dp1073
g13
g6
(g7
g8
(I1175
NI95
I1467
F0.4447388342165027
F0.9251968503937008
F0.6007157464212679
tp1074
tp1075
Rp1076
sg17
g6
(g7
g8
(I7636
NI212
I342
F0.957132113311607
F0.972986748216106
F0.9649943131555668
tp1077
tp1078
Rp1079
sg5
g6
(g7
g8
(I6112
NI1109
I312
F0.9514321295143213
F0.8464201634122698
F0.8958592891168926
tp1080
tp1081
Rp1082
sg21
(I7848
I7978
tp1083
sg23
(I643
I1554
tp1084
ssI5
(dp1085
g13
g6
(g7
g8
(I1151
NI79
I1491
F0.4356548069644209
F0.9357723577235773
F0.5945247933884298
tp1086
tp1087
Rp1088
sg17
g6
(g7
g8
(I7650
NI213
I328
F0.9588869390824768
F0.972911102632583
F0.9658481156492645
tp1089
tp1090
Rp1091
sg5
g6
(g7
g8
(I6125
NI1131
I299
F0.9534557907845579
F0.8441289966923925
F0.89546783625731
tp1092
tp1093
Rp1094
sg21
(I7863
I7978
tp1095
sg23
(I623
I1554
tp1096
ssI6
(dp1097
g13
g6
(g7
g8
(I1143
NI67
I1499
F0.43262679788039365
F0.9446280991735537
F0.5934579439252337
tp1098
tp1099
Rp1100
sg17
g6
(g7
g8
(I7659
NI215
I319
F0.9600150413637503
F0.9726949453898908
F0.9663133989401967
tp1101
tp1102
Rp1103
sg5
g6
(g7
g8
(I6134
NI1143
I290
F0.9548567870485679
F0.8429297787549814
F0.8954090942266989
tp1104
tp1105
Rp1106
sg21
(I7874
I7978
tp1107
sg23
(I613
I1554
tp1108
ssI7
(dp1109
g13
g6
(g7
g8
(I1123
NI64
I1519
F0.42505677517032553
F0.9460825610783488
F0.5865761295377383
tp1110
tp1111
Rp1112
sg17
g6
(g7
g8
(I7663
NI216
I315
F0.9605164201554274
F0.9725853534712527
F0.9665132118307371
tp1113
tp1114
Rp1115
sg5
g6
(g7
g8
(I6137
NI1157
I287
F0.9553237858032378
F0.8413764738140938
F0.8947368421052632
tp1116
tp1117
Rp1118
sg21
(I7879
I7978
tp1119
sg23
(I601
I1554
tp1120
ssI8
(dp1121
g13
g6
(g7
g8
(I1106
NI64
I1536
F0.4186222558667676
F0.9452991452991453
F0.5802728226652676
tp1122
tp1123
Rp1124
sg17
g6
(g7
g8
(I7664
NI216
I314
F0.9606417648533467
F0.9725888324873097
F0.9665783831504603
tp1125
tp1126
Rp1127
sg5
g6
(g7
g8
(I6138
NI1167
I286
F0.9554794520547946
F0.8402464065708419
F0.8941656347876757
tp1128
tp1129
Rp1130
sg21
(I7880
I7978
tp1131
sg23
(I592
I1554
tp1132
ssI9
(dp1133
g13
g6
(g7
g8
(I1098
NI64
I1544
F0.4155942467827404
F0.9449225473321858
F0.5772870662460567
tp1134
tp1135
Rp1136
sg17
g6
(g7
g8
(I7665
NI216
I313
F0.960767109551266
F0.9725923106204797
F0.96664354625134
tp1137
tp1138
Rp1139
sg5
g6
(g7
g8
(I6138
NI1172
I286
F0.9554794520547946
F0.839671682626539
F0.8938401048492792
tp1140
tp1141
Rp1142
sg21
(I7881
I7978
tp1143
sg23
(I588
I1554
tp1144
ssI10
(dp1145
g13
g6
(g7
g8
(I1091
NI65
I1551
F0.4129447388342165
F0.9437716262975778
F0.5745129015271195
tp1146
tp1147
Rp1148
sg17
g6
(g7
g8
(I7667
NI217
I311
F0.9610177989471045
F0.9724759005580923
F0.9667128987517337
tp1149
tp1150
Rp1151
sg5
g6
(g7
g8
(I6137
NI1179
I287
F0.9553237858032378
F0.8388463641334062
F0.8933042212518195
tp1152
tp1153
Rp1154
sg21
(I7884
I7978
tp1155
sg23
(I585
I1554
tp1156
ssI15
(dp1157
g13
g6
(g7
g8
(I1060
NI64
I1582
F0.4012112036336109
F0.9430604982206405
F0.562931492299522
tp1158
tp1159
Rp1160
sg17
g6
(g7
g8
(I7687
NI217
I291
F0.9635246929054901
F0.9725455465587044
F0.9680141040171263
tp1161
tp1162
Rp1163
sg5
g6
(g7
g8
(I6143
NI1211
I281
F0.9562577833125778
F0.8353277128093555
F0.8917114240092902
tp1164
tp1165
Rp1166
sg21
(I7904
I7978
tp1167
sg23
(I569
I1554
tp1168
ssI50
(dp1169
g13
g6
(g7
g8
(I987
NI58
I1655
F0.3735806207418622
F0.9444976076555024
F0.5353946297803092
tp1170
tp1171
Rp1172
sg17
g6
(g7
g8
(I7720
NI218
I258
F0.9676610679368263
F0.9725371630133535
F0.970092988187987
tp1173
tp1174
Rp1175
sg5
g6
(g7
g8
(I6147
NI1281
I277
F0.9568804483188045
F0.8275444264943457
F0.8875252671094427
tp1176
tp1177
Rp1178
sg21
(I7938
I7978
tp1179
sg23
(I529
I1554
tp1180
ssI20
(dp1181
g13
g6
(g7
g8
(I1043
NI61
I1599
F0.394776684330053
F0.9447463768115942
F0.5568606513614522
tp1182
tp1183
Rp1184
sg17
g6
(g7
g8
(I7695
NI217
I283
F0.9645274504888444
F0.9725733063700708
F0.9685336689741977
tp1185
tp1186
Rp1187
sg5
g6
(g7
g8
(I6146
NI1227
I278
F0.9567247820672479
F0.8335819883358199
F0.8909183155758498
tp1188
tp1189
Rp1190
sg21
(I7912
I7978
tp1191
sg23
(I559
I1554
tp1192
sstp1193
.